target datalayout = "e-m:e-p270:32:32-p271:32:32-p272:64:64-i64:64-i128:128-f80:128-n8:16:32:64-S128"
target triple = "x86_64-unknown-linux-gnu"

%struct.timespec = type { i64, i64 }

@_ZN12_GLOBAL__N_120mnStopwatchFrequencyE = internal global i64 1, align 8
@_ZN12_GLOBAL__N_114mnCPUFrequencyE = internal global i64 1, align 8

; Function Attrs: mustprogress nounwind uwtable
define linkonce_odr dso_local noundef i64 @_ZN2EA4StdC9Stopwatch11GetCPUCycleEv() #1 comdat align 2 {
entry:
  %0 = call i64 @llvm.x86.rdtsc()
  ret i64 %0
}

; Function Attrs: mustprogress nounwind uwtable
define linkonce_odr dso_local noundef i64 @_ZN2EA4StdC9Stopwatch17GetStopwatchCycleEv() #1 comdat align 2 {
entry:
  %ts = alloca %struct.timespec, align 8
  %result = alloca i32, align 4
  %nNanoseconds = alloca i64, align 8
  %call = call i32 @clock_gettime(i32 noundef 1, ptr noundef %ts) #6
  store i32 %call, ptr %result, align 4
  %0 = load i32, ptr %result, align 4
  %cmp = icmp eq i32 %0, 22
  br i1 %cmp, label %if.then, label %if.end

if.then:                                          ; preds = %entry
  %call1 = call i32 @clock_gettime(i32 noundef 0, ptr noundef %ts) #6
  store i32 %call1, ptr %result, align 4
  br label %if.end

if.end:                                           ; preds = %if.then, %entry
  %tv_nsec = getelementptr inbounds %struct.timespec, ptr %ts, i32 0, i32 1
  %1 = load i64, ptr %tv_nsec, align 8
  %tv_sec = getelementptr inbounds %struct.timespec, ptr %ts, i32 0, i32 0
  %2 = load i64, ptr %tv_sec, align 8
  %mul = mul i64 %2, 1000000000
  %add = add i64 %1, %mul
  store i64 %add, ptr %nNanoseconds, align 8
  %3 = load i64, ptr %nNanoseconds, align 8
  ret i64 %3
}

; Function Attrs: mustprogress uwtable
define dso_local void @_Z20EAStdCStopwatchSetupv() #0 {
entry:
  %nTimeCounter1 = alloca i64, align 8
  %nCPUCounter1 = alloca i64, align 8
  %nCPUCounter2 = alloca i64, align 8
  %nTimeCounter2 = alloca i64, align 8
  %nTimeDeltaUs = alloca i64, align 8
  %nCPUDeltaTicks = alloca i64, align 8
  %0 = load i64, ptr @_ZN12_GLOBAL__N_120mnStopwatchFrequencyE, align 8
  %cmp = icmp ule i64 %0, 1
  br i1 %cmp, label %if.then, label %if.end

if.then:                                          ; preds = %entry
  %call = call noundef i64 @_ZN2EA4StdC9Stopwatch17GetStopwatchCycleEv()
  store i64 %call, ptr %nTimeCounter1, align 8
  %call1 = call noundef i64 @_ZN2EA4StdC9Stopwatch11GetCPUCycleEv()
  store i64 %call1, ptr %nCPUCounter1, align 8
  %call2 = call i32 @usleep(i32 noundef 250000)
  %call3 = call noundef i64 @_ZN2EA4StdC9Stopwatch11GetCPUCycleEv()
  store i64 %call3, ptr %nCPUCounter2, align 8
  %call4 = call noundef i64 @_ZN2EA4StdC9Stopwatch17GetStopwatchCycleEv()
  store i64 %call4, ptr %nTimeCounter2, align 8
  %1 = load i64, ptr %nTimeCounter2, align 8
  %2 = load i64, ptr %nTimeCounter1, align 8
  %sub = sub i64 %1, %2
  store i64 %sub, ptr %nTimeDeltaUs, align 8
  %3 = load i64, ptr %nCPUCounter2, align 8
  %4 = load i64, ptr %nCPUCounter1, align 8
  %sub5 = sub i64 %3, %4
  store i64 %sub5, ptr %nCPUDeltaTicks, align 8
  %5 = load i64, ptr %nCPUDeltaTicks, align 8
  %mul = mul i64 %5, 1000000000
  %6 = load i64, ptr %nTimeDeltaUs, align 8
  %div = udiv i64 %mul, %6
  store i64 %div, ptr @_ZN12_GLOBAL__N_114mnCPUFrequencyE, align 8
  store i64 1000000000, ptr @_ZN12_GLOBAL__N_120mnStopwatchFrequencyE, align 8
  call void @_Z32EAStdCStopwatchSetupCoefficientsv()
  br label %if.end

if.end:                                           ; preds = %if.then, %entry
  ret void
}