; Function Attrs: mustprogress uwtable
define dso_local void @_Z20EAStdCStopwatchSetupv() #1 {
entry:
  %ts.i1 = alloca %struct.timespec, align 8
  %ts.i = alloca %struct.timespec, align 8
  %.b = load i1, ptr @_ZN12_GLOBAL__N_120mnStopwatchFrequencyE, align 8
  br i1 %.b, label %if.end, label %if.then

if.then:                                          ; preds = %entry
  call void @llvm.lifetime.start.p0(i64 16, ptr nonnull %ts.i)
  %call.i = call i32 @clock_gettime(i32 noundef 1, ptr noundef nonnull %ts.i) #7
  %cmp.i = icmp eq i32 %call.i, 22
  br i1 %cmp.i, label %if.then.i, label %_ZN2EA4StdC9Stopwatch17GetStopwatchCycleEv.exit

if.then.i:                                        ; preds = %if.then
  %call1.i = call i32 @clock_gettime(i32 noundef 0, ptr noundef nonnull %ts.i) #7
  br label %_ZN2EA4StdC9Stopwatch17GetStopwatchCycleEv.exit

_ZN2EA4StdC9Stopwatch17GetStopwatchCycleEv.exit:  ; preds = %if.then, %if.then.i
  %tv_nsec.i = getelementptr inbounds nuw i8, ptr %ts.i, i64 8
  %0 = load i64, ptr %tv_nsec.i, align 8
  %1 = load i64, ptr %ts.i, align 8
  call void @llvm.lifetime.end.p0(i64 16, ptr nonnull %ts.i)
  %2 = call noundef i64 @llvm.x86.rdtsc()
  %call2 = call i32 @usleep(i32 noundef 250000)
  %3 = call noundef i64 @llvm.x86.rdtsc()
  call void @llvm.lifetime.start.p0(i64 16, ptr nonnull %ts.i1)
  %call.i2 = call i32 @clock_gettime(i32 noundef 1, ptr noundef nonnull %ts.i1) #7
  %cmp.i3 = icmp eq i32 %call.i2, 22
  br i1 %cmp.i3, label %if.then.i7, label %_ZN2EA4StdC9Stopwatch17GetStopwatchCycleEv.exit9

if.then.i7:                                       ; preds = %_ZN2EA4StdC9Stopwatch17GetStopwatchCycleEv.exit
  %call1.i8 = call i32 @clock_gettime(i32 noundef 0, ptr noundef nonnull %ts.i1) #7
  br label %_ZN2EA4StdC9Stopwatch17GetStopwatchCycleEv.exit9

_ZN2EA4StdC9Stopwatch17GetStopwatchCycleEv.exit9: ; preds = %_ZN2EA4StdC9Stopwatch17GetStopwatchCycleEv.exit, %if.then.i7
  %tv_nsec.i4 = getelementptr inbounds nuw i8, ptr %ts.i1, i64 8
  %4 = load i64, ptr %tv_nsec.i4, align 8
  %5 = load i64, ptr %ts.i1, align 8
  call void @llvm.lifetime.end.p0(i64 16, ptr nonnull %ts.i1)
  %reass.add = sub i64 %5, %1
  %reass.mul = mul i64 %reass.add, 1000000000
  %add.i6 = sub i64 %4, %0
  %sub = add i64 %add.i6, %reass.mul
  %sub5 = sub i64 %3, %2
  %mul = mul i64 %sub5, 1000000000
  %div = udiv i64 %mul, %sub
  store i64 %div, ptr @_ZN12_GLOBAL__N_114mnCPUFrequencyE, align 8
  store i1 true, ptr @_ZN12_GLOBAL__N_120mnStopwatchFrequencyE, align 8
  call void @_Z32EAStdCStopwatchSetupCoefficientsv()
  br label %if.end

if.end:                                           ; preds = %_ZN2EA4StdC9Stopwatch17GetStopwatchCycleEv.exit9, %entry
  ret void
}